; Function Attrs: null_pointer_is_valid sspstrong uwtable
define internal i32 @dissect_aim_chat_incoming_msg(ptr noundef %0, ptr noundef readonly captures(none) %1, ptr noundef %2) #0 {
  %4 = getelementptr inbounds nuw i8, ptr %1, i64 408
  %5 = load ptr, ptr %4, align 8
  %6 = tail call noalias dereferenceable_or_null(1000) ptr @wmem_alloc(ptr noundef %5, i64 noundef 1000) #12
  %7 = load ptr, ptr %4, align 8
  %8 = tail call zeroext i8 @tvb_get_uint8(ptr noundef %0, i32 noundef 30)
  %9 = zext i8 %8 to i32
  %10 = tail call ptr @tvb_get_string_enc(ptr noundef %7, ptr noundef %0, i32 noundef 31, i32 noundef %9, i32 noundef 2)
  %11 = add nuw nsw i32 %9, 36
  %12 = tail call i32 @tvb_reported_length(ptr noundef %0)
  %reass.sub = sub i32 %12, %9
  %13 = add i32 %reass.sub, -36
  tail call fastcc void @aim_get_message(ptr noundef %6, ptr noundef %0, i32 noundef %11, i32 noundef %13)
  %14 = getelementptr inbounds nuw i8, ptr %1, i64 8
  %15 = load ptr, ptr %14, align 8
  tail call void (ptr, i32, ptr, ...) @col_append_fstr(ptr noundef %15, i32 noundef 25, ptr noundef nonnull @.str.703, ptr noundef %10)
  %16 = load ptr, ptr %14, align 8
  tail call void (ptr, i32, ptr, ...) @col_append_fstr(ptr noundef %16, i32 noundef 25, ptr noundef nonnull @.str.702, ptr noundef %6)
  %17 = load i32, ptr @hf_aim_chat_screen_name, align 4
  %18 = tail call ptr @proto_tree_add_string(ptr noundef %2, i32 noundef %17, ptr noundef %0, i32 noundef 31, i32 noundef %9, ptr noundef %10)
  %19 = tail call i32 @tvb_reported_length(ptr noundef %0)
  ret i32 %19
}